(dp0
S'd_acc'
p1
(lp2
cnumpy.core.multiarray
scalar
p3
(cnumpy
dtype
p4
(S'f8'
p5
I0
I1
tp6
Rp7
(I3
S'<'
p8
NNNI-1
I-1
I0
tp9
bS'\x00\x00\x00\x00\x00\x00\x00\x00'
p10
tp11
Rp12
asS'args'
p13
(dp14
sS'mass_mu'
p15
(lp16
g3
(g4
(S'f4'
p17
I0
I1
tp18
Rp19
(I3
S'<'
p20
NNNI-1
I-1
I0
tp21
bS'\x14\xe1\x80B'
p22
tp23
Rp24
asS'metric2'
p25
(lp26
sS'epoch'
p27
(lp28
I500
asS'mass_sig'
p29
(lp30
g3
(g19
S'K\xac\xf9A'
p31
tp32
Rp33
asS'time'
p34
(lp35
F1515195171.579928
asS'd_loss'
p36
(lp37
g3
(g19
S'\xf6O\xa3<'
p38
tp39
Rp40
asS'g_loss'
p41
(lp42
g3
(g19
S'\xdd\xb74='
p43
tp44
Rp45
asS'metric1'
p46
(lp47
g3
(g7
S'\x9e\xc3\xba\xee\x17\xd3@C'
p48
tp49
Rp50
as.