(dp0
S'max_mean_diff'
p1
(lp2
cnumpy.core.multiarray
scalar
p3
(cnumpy
dtype
p4
(S'f4'
p5
I0
I1
tp6
Rp7
(I3
S'<'
p8
NNNI-1
I-1
I0
tp9
bS'C\xe3\xd4D'
p10
tp11
Rp12
ag3
(g7
S'\xa9\xb1tE'
p13
tp14
Rp15
ag3
(g7
S'\xb4\xe7\x9cE'
p16
tp17
Rp18
ag3
(g7
S'u\x19\xaaE'
p19
tp20
Rp21
ag3
(g7
S'\xb7\xeayF'
p22
tp23
Rp24
ag3
(g7
S'7\xc1\xe5D'
p25
tp26
Rp27
ag3
(g7
S'G\xe6\xe2D'
p28
tp29
Rp30
ag3
(g7
S'Z\xaadE'
p31
tp32
Rp33
ag3
(g7
S'\xcbd|D'
p34
tp35
Rp36
ag3
(g7
S'\xb3\xaf\x0fE'
p37
tp38
Rp39
ag3
(g7
S'\x1by\xa5D'
p40
tp41
Rp42
ag3
(g7
S'\xd2\xe5\x88D'
p43
tp44
Rp45
ag3
(g7
S'\xccS\x15E'
p46
tp47
Rp48
ag3
(g7
S'\xa3\x9cnD'
p49
tp50
Rp51
ag3
(g7
S'\xb4\xe8uD'
p52
tp53
Rp54
ag3
(g7
S'\xb1\xabwD'
p55
tp56
Rp57
ag3
(g7
S'\xedo=E'
p58
tp59
Rp60
ag3
(g7
S'Pv\x82D'
p61
tp62
Rp63
ag3
(g7
S'_\xe9\x1dE'
p64
tp65
Rp66
ag3
(g7
S'w\x9fzE'
p67
tp68
Rp69
ag3
(g7
S'\x88\x9f\x0fD'
p70
tp71
Rp72
ag3
(g7
S'&+\xedD'
p73
tp74
Rp75
ag3
(g7
S';\x02ZD'
p76
tp77
Rp78
ag3
(g7
S'8s\x1dD'
p79
tp80
Rp81
ag3
(g7
S'wT\x01E'
p82
tp83
Rp84
ag3
(g7
S'\xb7\xf3hE'
p85
tp86
Rp87
ag3
(g7
S'\xb9\x96EE'
p88
tp89
Rp90
ag3
(g7
S'\xd1E\x18E'
p91
tp92
Rp93
ag3
(g7
S'\xd1\n\x16E'
p94
tp95
Rp96
ag3
(g7
S'\xd0\xf9\xdfD'
p97
tp98
Rp99
ag3
(g7
S'\x0b\xac\x06E'
p100
tp101
Rp102
asS'args'
p103
(dp104
S'width_disc'
p105
I0
sS'ntest_samples'
p106
I10000
sS'output_size'
p107
I19
sS'terminate_early'
p108
I00
sS'do_batch_normalization_disc'
p109
I00
sS'use_delphes'
p110
I01
sS'use_ptetaphi_additionally'
p111
I00
sS'do_noisy_labels'
p112
I00
sS'tag'
p113
S'v2_batch512_bgbd_mllANDwidth_NonTC_newdata_mllfix'
p114
sS'fix_delphes_outputs'
p115
I00
sS'nepochs_dump_pred_metrics'
p116
I250
sS'loss_mll_weight'
p117
F0.01
sS'do_batch_normalization_gen'
p118
I00
sS'add_invmass_disc'
p119
I00
sS'width_gen'
p120
I0
sS'do_skip_connection'
p121
I00
sS'noise_type'
p122
I1
sS'loss_type'
p123
S'force_z_width'
p124
sS'nepochs_dump_models'
p125
I500
sS'input_file'
p126
S'/home/users/bhashemi/Projects/GIT/DY-GAN/delphes/total_Zmumu_13TeV_PU20_v2.npa'
p127
sS'scaler_type'
p128
S''
p129
sS'batch_size'
p130
I512
sS'do_concatenate_disc'
p131
I00
sS'do_soft_labels'
p132
I00
sS'depth_gen'
p133
I0
sS'noise_size'
p134
I19
sS'optimizer_disc'
p135
S'adadelta'
p136
sS'nepochs_max'
p137
I100001
sS'beefy_discriminator'
p138
I01
sS'depth_disc'
p139
I0
sS'do_tanh_gen'
p140
I00
sS'nepochs_decay_noisy_labels'
p141
I2000
sS'use_mll_loss'
p142
I01
sS'nepochs_dump_plots'
p143
I500
sS'beefy_generator'
p144
I01
sS'optimizer_gen'
p145
g136
sS'do_concatenate_gen'
p146
I00
ssS'd_acc'
p147
(lp148
g3
(g4
(S'f8'
p149
I0
I1
tp150
Rp151
(I3
S'<'
p152
NNNI-1
I-1
I0
tp153
bS'\x00\x00\x00\x00\x00,*@'
p154
tp155
Rp156
ag3
(g151
S'\x00\x00\x00\x00\x00\xc0\xf2?'
p157
tp158
Rp159
ag3
(g151
S'\x00\x00\x00\x00\x00\x00\x00\x00'
p160
tp161
Rp162
ag3
(g151
S'\x00\x00\x00\x00\x00\x00\x00\x00'
p163
tp164
Rp165
ag3
(g151
S'\x00\x00\x00\x00\x00\x00\x00\x00'
p166
tp167
Rp168
ag3
(g151
S'\x00\x00\x00\x00\x00\x00\x00\x00'
p169
tp170
Rp171
ag3
(g151
S'\x00\x00\x00\x00\x00\x00\x00\x00'
p172
tp173
Rp174
ag3
(g151
S'\x00\x00\x00\x00\x00\x00\x00\x00'
p175
tp176
Rp177
ag3
(g151
S'\x00\x00\x00\x00\x00\x00\x00\x00'
p178
tp179
Rp180
ag3
(g151
S'\x00\x00\x00\x00\x00\x00\x00\x00'
p181
tp182
Rp183
ag3
(g151
S'\x00\x00\x00\x00\x00\x00\x00\x00'
p184
tp185
Rp186
ag3
(g151
S'\x00\x00\x00\x00\x00\x00\x00\x00'
p187
tp188
Rp189
ag3
(g151
S'\x00\x00\x00\x00\x00\x00\x00\x00'
p190
tp191
Rp192
ag3
(g151
S'\x00\x00\x00\x00\x00\x00\x00\x00'
p193
tp194
Rp195
ag3
(g151
S'\x00\x00\x00\x00\x00\x00\x00\x00'
p196
tp197
Rp198
ag3
(g151
S'\x00\x00\x00\x00\x00\x00\x00\x00'
p199
tp200
Rp201
ag3
(g151
S'\x00\x00\x00\x00\x00\x00\xd9?'
p202
tp203
Rp204
ag3
(g151
S'\x00\x00\x00\x00\x00\x00\x00\x00'
p205
tp206
Rp207
ag3
(g151
S'\x00\x00\x00\x00\x00\x00\xc9?'
p208
tp209
Rp210
ag3
(g151
S'\x00\x00\x00\x00\x00\x00\x00\x00'
p211
tp212
Rp213
ag3
(g151
S'\x00\x00\x00\x00\x00\x00\x00\x00'
p214
tp215
Rp216
ag3
(g151
S'\x00\x00\x00\x00\x00\x00\x00\x00'
p217
tp218
Rp219
ag3
(g151
S'\x00\x00\x00\x00\x00\x00\x00\x00'
p220
tp221
Rp222
ag3
(g151
S'\x00\x00\x00\x00\x00\x00\x00\x00'
p223
tp224
Rp225
ag3
(g151
S'\x00\x00\x00\x00\x00\x00\x00\x00'
p226
tp227
Rp228
ag3
(g151
S'\x00\x00\x00\x00\x00\x00\x00\x00'
p229
tp230
Rp231
ag3
(g151
S'\x00\x00\x00\x00\x00\x00\x00\x00'
p232
tp233
Rp234
ag3
(g151
S'\x00\x00\x00\x00\x00\x00\x00\x00'
p235
tp236
Rp237
ag3
(g151
S'\x00\x00\x00\x00\x00\x00\x00\x00'
p238
tp239
Rp240
ag3
(g151
S'\x00\x00\x00\x00\x00\x00\x00\x00'
p241
tp242
Rp243
ag3
(g151
S'\x00\x00\x00\x00\x00\x00\x00\x00'
p244
tp245
Rp246
asS'std_dev_cov_diff'
p247
(lp248
g3
(g151
S'\xd3\x12\x8c\x8dHb\xc0@'
p249
tp250
Rp251
ag3
(g151
S'\xeb7\xc2\x8fd\x8f\xc7@'
p252
tp253
Rp254
ag3
(g151
S'4\xbd\xd0\x08\x90\xe7\xb8@'
p255
tp256
Rp257
ag3
(g151
S'\xca?\n\xf1w.\xcf@'
p258
tp259
Rp260
ag3
(g151
S'\xff\xb1\xfb\xdf\xc3p\xda@'
p261
tp262
Rp263
ag3
(g151
S'u/\xc8\xf2\xad\xc1\xcc@'
p264
tp265
Rp266
ag3
(g151
S'\x93\xb9\x94\x87\xd1x\xd7@'
p267
tp268
Rp269
ag3
(g151
S'\x84\xa3&\x1d\x85\x7f\xb1@'
p270
tp271
Rp272
ag3
(g151
S'\xb0\xe9\x19\x0b\xec\xf8\xc2@'
p273
tp274
Rp275
ag3
(g151
S'\xd4_\xf6\xf7\x9b\xa8\xad@'
p276
tp277
Rp278
ag3
(g151
S'K#\xc3\x13\x1aV\xc9@'
p279
tp280
Rp281
ag3
(g151
S'}2v\xa4\x08\xa4\xd0@'
p282
tp283
Rp284
ag3
(g151
S'\xd1\x12\xeb\xee\xb4\x11\xb9@'
p285
tp286
Rp287
ag3
(g151
S'\x19\x1b\xd1\xd0\xbf\xf5\xb5@'
p288
tp289
Rp290
ag3
(g151
S'\x82\xd1\xb9\r\x13W\xc4@'
p291
tp292
Rp293
ag3
(g151
S'K\\)@\x00\x0b\xc1@'
p294
tp295
Rp296
ag3
(g151
S'\xe0=\xd4j\x87h\xac@'
p297
tp298
Rp299
ag3
(g151
S'\xf4v\xbb\x9alu\xd5@'
p300
tp301
Rp302
ag3
(g151
S'\x957\x91$:\x8c\xd9@'
p303
tp304
Rp305
ag3
(g151
S']\x11`\xd4\\_\xb8@'
p306
tp307
Rp308
ag3
(g151
S'3\r\xe3\xa9S\x1e\xdc@'
p309
tp310
Rp311
ag3
(g151
S'\xa4%\x1d6\xbeq\xbd@'
p312
tp313
Rp314
ag3
(g151
S'\x97\xceN\xc2\xcf\xdb\xc6@'
p315
tp316
Rp317
ag3
(g151
S'2]\xb5N\xc7T\xc0@'
p318
tp319
Rp320
ag3
(g151
S'\x9b)\xcd\x8d\xc5\x8e\xcd@'
p321
tp322
Rp323
ag3
(g151
S'\xe4\x97\xff_\x90\xb1\xab@'
p324
tp325
Rp326
ag3
(g151
S'\xf4\xef\x0b&_\x82\xc9@'
p327
tp328
Rp329
ag3
(g151
S'\x9c@=)\xac\xfe\xc6@'
p330
tp331
Rp332
ag3
(g151
S'\xfe \x00\xdf\xd2\x8a\xb7@'
p333
tp334
Rp335
ag3
(g151
S'\x97\x8c\xc4\xf7[\x16\xbd@'
p336
tp337
Rp338
ag3
(g151
S"6QT'\xea\x7f\xc1@"
p339
tp340
Rp341
asS'max_cov_diff'
p342
(lp343
g3
(g151
S'V\x05C\xc1Pg\xf9@'
p344
tp345
Rp346
ag3
(g151
S'\xcd\xdd\xceaQ\xd6\xfb@'
p347
tp348
Rp349
ag3
(g151
S'R\x81ria\t\xea@'
p350
tp351
Rp352
ag3
(g151
S'\xf7\x95s\xb7\x99\xf7\x07A'
p353
tp354
Rp355
ag3
(g151
S'5\xa1\xc5\x85\x11c\x13A'
p356
tp357
Rp358
ag3
(g151
S'\xce+\x1c\xf6\xdef\x05A'
p359
tp360
Rp361
ag3
(g151
S'Y\x14M\xab"D\x0bA'
p362
tp363
Rp364
ag3
(g151
S'}\x97\xfc0T\x8d\xda@'
p365
tp366
Rp367
ag3
(g151
S'\n\xa8s\x91\xaf\x11\xff@'
p368
tp369
Rp370
ag3
(g151
S'\xde\xe8_f\xc4\xea\xe2@'
p371
tp372
Rp373
ag3
(g151
S'o\xfc\xf7\x8a\x99@\xfe@'
p374
tp375
Rp376
ag3
(g151
S'\x95\x8e\xed`\xae\xe5\nA'
p377
tp378
Rp379
ag3
(g151
S'\x84\xd5N\xe7\\]\xeb@'
p380
tp381
Rp382
ag3
(g151
S'\x02^\xde\xcb\xc7Q\xee@'
p383
tp384
Rp385
ag3
(g151
S'\xa8\xd1\x0c\xe0L\xd1\xfa@'
p386
tp387
Rp388
ag3
(g151
S'\x18\xfd\x1f\xf8,\x07\xf3@'
p389
tp390
Rp391
ag3
(g151
S'\xd2sh\xf4\xc8\xb9\xdb@'
p392
tp393
Rp394
ag3
(g151
S'?\xd79\x0f\x88\xd6\x10A'
p395
tp396
Rp397
ag3
(g151
S'\xbbYT\xbdH\x1e\x13A'
p398
tp399
Rp400
ag3
(g151
S'\xc7s\xe9\x95\x97\\\xed@'
p401
tp402
Rp403
ag3
(g151
S'\xd1\xbf\xfb\xd8\xccy\x17A'
p404
tp405
Rp406
ag3
(g151
S'\\gP!\xa4\xaf\xf7@'
p407
tp408
Rp409
ag3
(g151
S'\xf6\xc8y\x10\xbf\xa4\x02A'
p410
tp411
Rp412
ag3
(g151
S'\x98\x17\x9f\xe9\xec\xe8\xf6@'
p413
tp414
Rp415
ag3
(g151
S'fP\xab\xe5\x95\xa2\x06A'
p416
tp417
Rp418
ag3
(g151
S"\xfe\xae\x8b\x8d'\x9d\xda@"
p419
tp420
Rp421
ag3
(g151
S'qe\xd3\x96v\xf6\xfb@'
p422
tp423
Rp424
ag3
(g151
S'_\xd8\x19X1\x12\xf7@'
p425
tp426
Rp427
ag3
(g151
S'\xa2\xc6\n\xcfxe\xef@'
p428
tp429
Rp430
ag3
(g151
S'\x01u\xef\xfd\xfaU\xf4@'
p431
tp432
Rp433
ag3
(g151
S'/G\xc8\x8e\xf5\xea\xfa@'
p434
tp435
Rp436
asS'std_dev_mean_diff'
p437
(lp438
g3
(g7
S'\xb7\x8a\xbfC'
p439
tp440
Rp441
ag3
(g7
S'#\x97vD'
p442
tp443
Rp444
ag3
(g7
S'\xdcw\xa5D'
p445
tp446
Rp447
ag3
(g7
S'h\xfb\xabD'
p448
tp449
Rp450
ag3
(g7
S'\nzjE'
p451
tp452
Rp453
ag3
(g7
S'\x84\xdc\x17D'
p454
tp455
Rp456
ag3
(g7
S'\xe5s\x02D'
p457
tp458
Rp459
ag3
(g7
S'\xd9\xf8PD'
p460
tp461
Rp462
ag3
(g7
S'~\x86\x9aC'
p463
tp464
Rp465
ag3
(g7
S'\x0b<\nD'
p466
tp467
Rp468
ag3
(g7
S'\xabk\x9eC'
p469
tp470
Rp471
ag3
(g7
S'\xdcq\x98C'
p472
tp473
Rp474
ag3
(g7
S'19\x0fD'
p475
tp476
Rp477
ag3
(g7
S'j\x84\x84C'
p478
tp479
Rp480
ag3
(g7
S'D<\x95C'
p481
tp482
Rp483
ag3
(g7
S'\x9e\xe8|C'
p484
tp485
Rp486
ag3
(g7
S'\x8d\xc2*D'
p487
tp488
Rp489
ag3
(g7
S'^L\x9bC'
p490
tp491
Rp492
ag3
(g7
S'"8\x0fD'
p493
tp494
Rp495
ag3
(g7
S'\x9f\x04\x84D'
p496
tp497
Rp498
ag3
(g7
S'\x1a\x04%C'
p499
tp500
Rp501
ag3
(g7
S'\xd2\xb2\xd4C'
p502
tp503
Rp504
ag3
(g7
S'&\xadiC'
p505
tp506
Rp507
ag3
(g7
S'\x02\xdbCC'
p508
tp509
Rp510
ag3
(g7
S')<\x19D'
p511
tp512
Rp513
ag3
(g7
S'\xe1)TD'
p514
tp515
Rp516
ag3
(g7
S'$\xe3/D'
p517
tp518
Rp519
ag3
(g7
S'\nF\tD'
p520
tp521
Rp522
ag3
(g7
S'\xf9+\x05D'
p523
tp524
Rp525
ag3
(g7
S'\xadF\xfaC'
p526
tp527
Rp528
ag3
(g7
S'}\x84\x0bD'
p529
tp530
Rp531
asS'mass_mu'
p532
(lp533
g3
(g7
S'z:jB'
p534
tp535
Rp536
ag3
(g7
S'\xac\xfc\x98B'
p537
tp538
Rp539
ag3
(g7
S'\xe0M\xc9B'
p540
tp541
Rp542
ag3
(g7
S'\x8c\xe5\xbeB'
p543
tp544
Rp545
ag3
(g7
S'}\x00\xe2B'
p546
tp547
Rp548
ag3
(g7
S'9\x1e\xa6B'
p549
tp550
Rp551
ag3
(g7
S'\xd3H\xa8B'
p552
tp553
Rp554
ag3
(g7
S'\x92_\x9dB'
p555
tp556
Rp557
ag3
(g7
S'\xa1N\xbdB'
p558
tp559
Rp560
ag3
(g7
S'D0\xc2B'
p561
tp562
Rp563
ag3
(g7
S'\x99C\xb4B'
p564
tp565
Rp566
ag3
(g7
S'\xb9\x17\xacB'
p567
tp568
Rp569
ag3
(g7
S'\x9a\x12\xacB'
p570
tp571
Rp572
ag3
(g7
S'\xc5\xd1\xb3B'
p573
tp574
Rp575
ag3
(g7
S'\t\x80\xb7B'
p576
tp577
Rp578
ag3
(g7
S'K\xec\xbaB'
p579
tp580
Rp581
ag3
(g7
S'@\x19\xc0B'
p582
tp583
Rp584
ag3
(g7
S'\xe0_\xabB'
p585
tp586
Rp587
ag3
(g7
S'\x0f\xdc\xccB'
p588
tp589
Rp590
ag3
(g7
S':\xae\xc6B'
p591
tp592
Rp593
ag3
(g7
S'\xe2r\xb3B'
p594
tp595
Rp596
ag3
(g7
S'\t\x7f\xb2B'
p597
tp598
Rp599
ag3
(g7
S'7]\xc1B'
p600
tp601
Rp602
ag3
(g7
S'\xe8\x98\xabB'
p603
tp604
Rp605
ag3
(g7
S'\xf2t\xb6B'
p606
tp607
Rp608
ag3
(g7
S'\x15\xf3\xb8B'
p609
tp610
Rp611
ag3
(g7
S'9\x7f\xb1B'
p612
tp613
Rp614
ag3
(g7
S'B\xb0\xa9B'
p615
tp616
Rp617
ag3
(g7
S'\xc4x\xaeB'
p618
tp619
Rp620
ag3
(g7
S'\x88p\xbbB'
p621
tp622
Rp623
ag3
(g7
S'\xb0i\xc2B'
p624
tp625
Rp626
asS'avg_cov_diff'
p627
(lp628
g3
(g151
S'\x1a\xae\xf21\xdde\x97@'
p629
tp630
Rp631
ag3
(g151
S'\x869]\xfe\x8b\xa7\xa9@'
p632
tp633
Rp634
ag3
(g151
S'\xcc&\xf6\xde\x8a\xa4\x9a@'
p635
tp636
Rp637
ag3
(g151
S'y\xf8\x07\xf4\xbdw\xa8@'
p638
tp639
Rp640
ag3
(g151
S'9\xac\x90I\r\x80\xb5@'
p641
tp642
Rp643
ag3
(g151
S'oB\xf8\xb9\xda\xd1\xab@'
p644
tp645
Rp646
ag3
(g151
S': \x181E\xf4\xb1@'
p647
tp648
Rp649
ag3
(g151
S'\x96\x18\xa3\x8a74\x9d@'
p650
tp651
Rp652
ag3
(g151
S'Yd^\xe1\x02l\x96@'
p653
tp654
Rp655
ag3
(g151
S'\xb3:8\xfe\xc9|\x93@'
p656
tp657
Rp658
ag3
(g151
S'\xb0&*\x08Ad\xab@'
p659
tp660
Rp661
ag3
(g151
S'hPV\xb0\x14J\xa5@'
p662
tp663
Rp664
ag3
(g151
S'\x10\xf8o&\x1fb\x99@'
p665
tp666
Rp667
ag3
(g151
S'\xda\xca;\x03\xe4\xf1\x94@'
p668
tp669
Rp670
ag3
(g151
S'\xcc\xfe$\x1d \x97\xa2@'
p671
tp672
Rp673
ag3
(g151
S'n/\xe6\xa6\x18\xeb\x9f@'
p674
tp675
Rp676
ag3
(g151
S'I\x1d\x8f\xca[I\x8e@'
p677
tp678
Rp679
ag3
(g151
S'\xc95JZ\xf8\xf4\xa9@'
p680
tp681
Rp682
ag3
(g151
S'\x9c\x04\xf6\x80\xf54\xb1@'
p683
tp684
Rp685
ag3
(g151
S'{{\xca%4,\x99@'
p686
tp687
Rp688
ag3
(g151
S'\xb76\xd0D\xd3\xb3\xa9@'
p689
tp690
Rp691
ag3
(g151
S'\x05w\xa4~\xb5\xa4\x95@'
p692
tp693
Rp694
ag3
(g151
S'\xb7\x8aYbW{\x9c@'
p695
tp696
Rp697
ag3
(g151
S'\xc2\x05\x85m)f\x9b@'
p698
tp699
Rp700
ag3
(g151
S'\xa4\xffR\x84\xb0\xe4\xa2@'
p701
tp702
Rp703
ag3
(g151
S'\tTCvN\xb0\x93@'
p704
tp705
Rp706
ag3
(g151
S'\xe2\xba\x15Z4\x1b\xaa@'
p707
tp708
Rp709
ag3
(g151
S'\xe64\x87\x0c\x9eg\xaa@'
p710
tp711
Rp712
ag3
(g151
S'1\xd1&+\x00J\x95@'
p713
tp714
Rp715
ag3
(g151
S'\x0f\x06\x97\x95\xe17\x96@'
p716
tp717
Rp718
ag3
(g151
S'\x9d\xe7\x14Z;p\x9b@'
p719
tp720
Rp721
asS'epoch'
p722
(lp723
I500
aI750
aI1000
aI1250
aI1500
aI1750
aI2000
aI2250
aI2500
aI2750
aI3000
aI3250
aI3500
aI3750
aI4000
aI4250
aI4500
aI4750
aI5000
aI5250
aI5500
aI5750
aI6000
aI6250
aI6500
aI6750
aI7000
aI7250
aI7500
aI7750
aI8000
asS'avg_mean_diff'
p724
(lp725
g3
(g7
S'\x80\xad\x18C'
p726
tp727
Rp728
ag3
(g7
S'\xfc~\x00D'
p729
tp730
Rp731
ag3
(g7
S'\xf6l\x14D'
p732
tp733
Rp734
ag3
(g7
S'\xd3\x05\x1cD'
p735
tp736
Rp737
ag3
(g7
S'\x0eZ\xaeD'
p738
tp739
Rp740
ag3
(g7
S'\xfc\xfb\xbdC'
p741
tp742
Rp743
ag3
(g7
S'GM\x98C'
p744
tp745
Rp746
ag3
(g7
S'-\xa9\xaeC'
p747
tp748
Rp749
ag3
(g7
S'\xb4|\x15C'
p750
tp751
Rp752
ag3
(g7
S'X\x96\x82C'
p753
tp754
Rp755
ag3
(g7
S'\xe3W\x1bC'
p756
tp757
Rp758
ag3
(g7
S')L\x1cC'
p759
tp760
Rp761
ag3
(g7
S'?R\x87C'
p762
tp763
Rp764
ag3
(g7
S'-q\x0cC'
p765
tp766
Rp767
ag3
(g7
S'x\xb6\x10C'
p768
tp769
Rp770
ag3
(g7
S'\xda\x97\x02C'
p771
tp772
Rp773
ag3
(g7
S'\xd2\x17\x80C'
p774
tp775
Rp776
ag3
(g7
S"\xc6\xe1'C"
p777
tp778
Rp779
ag3
(g7
S'SpRC'
p780
tp781
Rp782
ag3
(g7
S'0=\xcaC'
p783
tp784
Rp785
ag3
(g7
S'\x01z\xbcB'
p786
tp787
Rp788
ag3
(g7
S't\xc3#C'
p789
tp790
Rp791
ag3
(g7
S'\x96f\xfeB'
p792
tp793
Rp794
ag3
(g7
S'\xe7\x1f\xe2B'
p795
tp796
Rp797
ag3
(g7
S'\xa9\xbe\x93C'
p798
tp799
Rp800
ag3
(g7
S'\xe1#\x96C'
p801
tp802
Rp803
ag3
(g7
S'\xd1,~C'
p804
tp805
Rp806
ag3
(g7
S']@[C'
p807
tp808
Rp809
ag3
(g7
S'\xd0\x90\x1eC'
p810
tp811
Rp812
ag3
(g7
S'bbXC'
p813
tp814
Rp815
ag3
(g7
S'\xbb\xbb^C'
p816
tp817
Rp818
asS'mass_sig'
p819
(lp820
g3
(g7
S'\x83\xfd}A'
p821
tp822
Rp823
ag3
(g7
S'\xcbPWA'
p824
tp825
Rp826
ag3
(g7
S'Q\xdb\xed@'
p827
tp828
Rp829
ag3
(g7
S'\xb9g\x01A'
p830
tp831
Rp832
ag3
(g7
S'\xf6\xa6gA'
p833
tp834
Rp835
ag3
(g7
S'\xbb<*A'
p836
tp837
Rp838
ag3
(g7
S'\x85\xfc\xd1@'
p839
tp840
Rp841
ag3
(g7
S'\x95\x08\x14A'
p842
tp843
Rp844
ag3
(g7
S'\x81\xb76A'
p845
tp846
Rp847
ag3
(g7
S'\xcb}\x16A'
p848
tp849
Rp850
ag3
(g7
S'O-\x14A'
p851
tp852
Rp853
ag3
(g7
S'\xe3p\xe0@'
p854
tp855
Rp856
ag3
(g7
S'3\xfb\nA'
p857
tp858
Rp859
ag3
(g7
S'\x07:\x1bA'
p860
tp861
Rp862
ag3
(g7
S')\xf9\xcc@'
p863
tp864
Rp865
ag3
(g7
S'\xd7x;A'
p866
tp867
Rp868
ag3
(g7
S'\xb0\x90QA'
p869
tp870
Rp871
ag3
(g7
S'X\x92CA'
p872
tp873
Rp874
ag3
(g7
S'\x96;\x83A'
p875
tp876
Rp877
ag3
(g7
S't\xf8>A'
p878
tp879
Rp880
ag3
(g7
S'\x13\x99,A'
p881
tp882
Rp883
ag3
(g7
S'\xb1G\xf1@'
p884
tp885
Rp886
ag3
(g7
S'\x91\x16\xfd@'
p887
tp888
Rp889
ag3
(g7
S'\x7f\xfc\xc6@'
p890
tp891
Rp892
ag3
(g7
S'V\xe3\xe6@'
p893
tp894
Rp895
ag3
(g7
S'\x12\x1d"A'
p896
tp897
Rp898
ag3
(g7
S'\x8c+\xb7@'
p899
tp900
Rp901
ag3
(g7
S'\x93^\xfc@'
p902
tp903
Rp904
ag3
(g7
S'\xa8\x19\xcc@'
p905
tp906
Rp907
ag3
(g7
S'\xff\xa4\xf4@'
p908
tp909
Rp910
ag3
(g7
S'\xd5\x9a\x19A'
p911
tp912
Rp913
asS'time'
p914
(lp915
F1526503871.690145
aF1526503897.560938
aF1526503913.480657
aF1526503931.297723
aF1526503946.838417
aF1526503964.289716
aF1526503979.704912
aF1526503997.587778
aF1526504013.227786
aF1526504030.818419
aF1526504046.497108
aF1526504064.078193
aF1526504079.648978
aF1526504097.550592
aF1526504113.683267
aF1526504132.134989
aF1526504148.037795
aF1526504165.953209
aF1526504181.693876
aF1526504199.349328
aF1526504214.831957
aF1526504232.677344
aF1526504250.067587
aF1526504267.802648
aF1526504283.455739
aF1526504301.251585
aF1526504316.911681
aF1526504334.913984
aF1526504350.533254
aF1526504368.779895
aF1526504384.487817
asS'd_loss'
p916
(lp917
g3
(g7
S'\x07*\xf1>'
p918
tp919
Rp920
ag3
(g7
S'\x8c\xd7\xc2>'
p921
tp922
Rp923
ag3
(g7
S'cY#?'
p924
tp925
Rp926
ag3
(g7
S'l\xbc\xc7>'
p927
tp928
Rp929
ag3
(g7
S'\x9as\xa2>'
p930
tp931
Rp932
ag3
(g7
S',\xadA?'
p933
tp934
Rp935
ag3
(g7
S'\xc7\x88\x88>'
p936
tp937
Rp938
ag3
(g7
S'\x8dcB?'
p939
tp940
Rp941
ag3
(g7
S'\x85\xe2/?'
p942
tp943
Rp944
ag3
(g7
S'\x06$-?'
p945
tp946
Rp947
ag3
(g7
S'\xfd7\xfc>'
p948
tp949
Rp950
ag3
(g7
S'\x04\xbb\xbb>'
p951
tp952
Rp953
ag3
(g7
S'`\xad\xd2>'
p954
tp955
Rp956
ag3
(g7
S'<\xa4\xc2>'
p957
tp958
Rp959
ag3
(g7
S'k\xf9\x9b>'
p960
tp961
Rp962
ag3
(g7
S'\xe5\x143?'
p963
tp964
Rp965
ag3
(g7
S'p\x05\xaf>'
p966
tp967
Rp968
ag3
(g7
S'\xf3\x91\xca>'
p969
tp970
Rp971
ag3
(g7
S'\xde\x83\xd1>'
p972
tp973
Rp974
ag3
(g7
S'd\xc8\x8e>'
p975
tp976
Rp977
ag3
(g7
S';\xe6k>'
p978
tp979
Rp980
ag3
(g7
S'|)\xeb>'
p981
tp982
Rp983
ag3
(g7
S'Tp\x9f>'
p984
tp985
Rp986
ag3
(g7
S'\x07#\xa0>'
p987
tp988
Rp989
ag3
(g7
S'\x11Bj>'
p990
tp991
Rp992
ag3
(g7
S'\xc0\x0c\xaf>'
p993
tp994
Rp995
ag3
(g7
S'x\x1c<>'
p996
tp997
Rp998
ag3
(g7
S'/\xecN>'
p999
tp1000
Rp1001
ag3
(g7
S'>S&>'
p1002
tp1003
Rp1004
ag3
(g7
S'B\x01\x90>'
p1005
tp1006
Rp1007
ag3
(g7
S'\xb8\xfe\xa6>'
p1008
tp1009
Rp1010
asS'g_loss'
p1011
(lp1012
g3
(g7
S'\xe0\xe5\x8f@'
p1013
tp1014
Rp1015
ag3
(g7
S'\x92\xa8y@'
p1016
tp1017
Rp1018
ag3
(g7
S'\x07_G@'
p1019
tp1020
Rp1021
ag3
(g7
S'\xa7\x95\x16@'
p1022
tp1023
Rp1024
ag3
(g7
S'\xed\x0f\x0c@'
p1025
tp1026
Rp1027
ag3
(g7
S'O\x84\x06@'
p1028
tp1029
Rp1030
ag3
(g7
S'q\xad\x05@'
p1031
tp1032
Rp1033
ag3
(g7
S'\xf6\xbc\xad?'
p1034
tp1035
Rp1036
ag3
(g7
S'\xe4\xb7\x91?'
p1037
tp1038
Rp1039
ag3
(g7
S'"\xaa\xb8?'
p1040
tp1041
Rp1042
ag3
(g7
S'6R\xf1?'
p1043
tp1044
Rp1045
ag3
(g7
S'yl\xe9?'
p1046
tp1047
Rp1048
ag3
(g7
S'P\n\x0b@'
p1049
tp1050
Rp1051
ag3
(g7
S'\xa5\x89\x01@'
p1052
tp1053
Rp1054
ag3
(g7
S'\xa5.(@'
p1055
tp1056
Rp1057
ag3
(g7
S'\xbb\xc0\x0c@'
p1058
tp1059
Rp1060
ag3
(g7
S'y\x89_@'
p1061
tp1062
Rp1063
ag3
(g7
S'\x04n\r@'
p1064
tp1065
Rp1066
ag3
(g7
S'\x9f]/@'
p1067
tp1068
Rp1069
ag3
(g7
S'\x02RH@'
p1070
tp1071
Rp1072
ag3
(g7
S'w\x1c>@'
p1073
tp1074
Rp1075
ag3
(g7
S'\xa4\xf9B@'
p1076
tp1077
Rp1078
ag3
(g7
S"}!'@"
p1079
tp1080
Rp1081
ag3
(g7
S'\x87\xceM@'
p1082
tp1083
Rp1084
ag3
(g7
S'a,A@'
p1085
tp1086
Rp1087
ag3
(g7
S'x\xbc>@'
p1088
tp1089
Rp1090
ag3
(g7
S'\x02\xdaT@'
p1091
tp1092
Rp1093
ag3
(g7
S'\x92\x06d@'
p1094
tp1095
Rp1096
ag3
(g7
S'@\x1bo@'
p1097
tp1098
Rp1099
ag3
(g7
S'Q\x07I@'
p1100
tp1101
Rp1102
ag3
(g7
S'\xe1\xff)@'
p1103
tp1104
Rp1105
as.